#include <math.h>
#include <stdio.h>
#include <stdlib.h>
#include <string.h>
#include <iostream>
using namespace std;

const int maxn=100;			//??????????????????const??????)
int main()
{
	int a[maxn],b[maxn];	//???????????????????????
	int n,i=0,j=0;			//??n??????????????
	cin>>n;					
	while(i<=(n-1))			//???????????a[n]
	{
	cin>>a[i];
	b[n-1-i]=a[i];			//???????????b?a??????
	i++;
	}
		while(j<(n-1))		//?????
		{
		cout<<b[j]<<" ";	//???????
		j++;
		}
		if(j==(n-1))
		cout<<b[j];
		return 0;
}